; Function Attrs: mustprogress uwtable
define hidden noundef ptr @_ZN18OpenImageIO_v2_6_03pvt17TextureSystemImpl9imagespecEPNS_13TextureSystem13TextureHandleEPNS2_9PerthreadEi(ptr noundef nonnull align 8 dereferenceable(184) %this, ptr noundef %texture_handle, ptr noundef %thread_info, i32 noundef %subimage) unnamed_addr #5 align 2 personality ptr @__gxx_personality_v0 {
entry:
  %err = alloca %"class.std::__cxx11::basic_string", align 8
  %m_imagecache = getelementptr inbounds i8, ptr %this, i64 8
  %0 = load ptr, ptr %m_imagecache, align 8
  %call = tail call noundef ptr @_ZN18OpenImageIO_v2_6_03pvt14ImageCacheImpl9imagespecEPNS0_14ImageCacheFileEPNS0_23ImageCachePerThreadInfoEiib(ptr noundef nonnull align 64 dereferenceable(25280) %0, ptr noundef %texture_handle, ptr noundef %thread_info, i32 noundef %subimage, i32 noundef 0, i1 noundef zeroext false)
  %tobool.not = icmp eq ptr %call, null
  br i1 %tobool.not, label %if.then, label %if.end5

if.then:                                          ; preds = %entry
  %1 = load ptr, ptr %m_imagecache, align 8
  call void @_ZNK18OpenImageIO_v2_6_03pvt14ImageCacheImpl8geterrorB5cxx11Eb(ptr nonnull sret(%"class.std::__cxx11::basic_string") align 8 %err, ptr noundef nonnull align 64 dereferenceable(25280) %1, i1 noundef zeroext true)
  %call3 = call noundef zeroext i1 @_ZNKSt7__cxx1112basic_stringIcSt11char_traitsIcESaIcEE5emptyEv(ptr noundef nonnull align 8 dereferenceable(32) %err) #30
  br i1 %call3, label %if.end, label %if.then4

if.then4:                                         ; preds = %if.then
  invoke void @_ZNK18OpenImageIO_v2_6_03pvt17TextureSystemImpl5errorIJNSt7__cxx1112basic_stringIcSt11char_traitsIcESaIcEEEEEEvPKcDpRKT_(ptr noundef nonnull align 8 dereferenceable(184) %this, ptr noundef nonnull @.str.50, ptr noundef nonnull align 8 dereferenceable(32) %err)
          to label %if.end unwind label %lpad

lpad:                                             ; preds = %if.then4
  %2 = landingpad { ptr, i32 }
          cleanup
  call void @_ZNSt7__cxx1112basic_stringIcSt11char_traitsIcESaIcEED1Ev(ptr noundef nonnull align 8 dereferenceable(32) %err) #30
  resume { ptr, i32 } %2

if.end:                                           ; preds = %if.then4, %if.then
  call void @_ZNSt7__cxx1112basic_stringIcSt11char_traitsIcESaIcEED1Ev(ptr noundef nonnull align 8 dereferenceable(32) %err) #30
  br label %if.end5

if.end5:                                          ; preds = %if.end, %entry
  ret ptr %call
}